; Function Attrs: mustprogress nounwind uwtable
define hidden void @_ZN16LogMessageBuffer6vwriteEN8LogLevel4typeEPKcP13__va_list_tag(ptr noundef nonnull align 8 dereferenceable(72) %0, i32 noundef %1, ptr noundef %2, ptr noundef %3) unnamed_addr #1 align 2 {
  %5 = alloca [1 x %struct.__va_list_tag], align 16
  %6 = getelementptr inbounds i8, ptr %0, i64 56
  %7 = load i8, ptr %6, align 8
  %8 = trunc i8 %7 to i1
  br i1 %8, label %16, label %9

9:                                                ; preds = %4
  store i8 1, ptr %6, align 8
  %10 = tail call noundef ptr @_Z12AllocateHeapm8MEMFLAGSN17AllocFailStrategy13AllocFailEnumE(i64 noundef 1024, i8 noundef zeroext 17, i32 noundef 0) #7
  %11 = getelementptr inbounds i8, ptr %0, i64 24
  store ptr %10, ptr %11, align 8
  %12 = tail call noundef ptr @_Z12AllocateHeapm8MEMFLAGSN17AllocFailStrategy13AllocFailEnumE(i64 noundef 160, i8 noundef zeroext 17, i32 noundef 0) #7
  %13 = getelementptr inbounds i8, ptr %0, i64 48
  store ptr %12, ptr %13, align 8
  %14 = getelementptr inbounds i8, ptr %0, i64 16
  store i64 1024, ptr %14, align 8
  %15 = getelementptr inbounds i8, ptr %0, i64 40
  store i64 10, ptr %15, align 8
  br label %16

16:                                               ; preds = %9, %4
  %17 = getelementptr inbounds i8, ptr %0, i64 60
  %18 = load i32, ptr %17, align 4
  %19 = icmp slt i32 %18, %1
  br i1 %19, label %20, label %21

20:                                               ; preds = %16
  store i32 %1, ptr %17, align 4
  br label %21

21:                                               ; preds = %20, %16
  %22 = getelementptr inbounds i8, ptr %0, i64 16
  %23 = getelementptr inbounds i8, ptr %0, i64 8
  %24 = getelementptr inbounds i8, ptr %0, i64 24
  %25 = getelementptr inbounds i8, ptr %0, i64 64
  %.pre = load i64, ptr %22, align 8
  %.pre37 = load ptr, ptr %24, align 8
  br label %26

26:                                               ; preds = %21, %48
  %27 = phi ptr [ %.pre37, %21 ], [ %52, %48 ]
  %28 = phi i64 [ %.pre, %21 ], [ %spec.select.i, %48 ]
  %29 = phi i1 [ true, %21 ], [ false, %48 ]
  %30 = load i64, ptr %23, align 8
  %31 = sub i64 %28, %30
  %32 = getelementptr inbounds i8, ptr %27, i64 %30
  %33 = load ptr, ptr %25, align 8
  %.not = icmp eq ptr %33, null
  br i1 %.not, label %37, label %34

34:                                               ; preds = %26
  %35 = call noundef i64 %33(ptr noundef %32, i64 noundef %31) #7
  %36 = getelementptr inbounds i8, ptr %32, i64 %35
  %spec.select = call i64 @llvm.usub.sat.i64(i64 %31, i64 %35)
  br label %37

37:                                               ; preds = %34, %26
  %.026 = phi i64 [ %31, %26 ], [ %spec.select, %34 ]
  %.025 = phi ptr [ %32, %26 ], [ %36, %34 ]
  %.1 = phi i64 [ 0, %26 ], [ %35, %34 ]
  call void @llvm.va_copy.p0(ptr nonnull %5, ptr %3)
  %38 = call noundef i32 @_ZN2os9vsnprintfEPcmPKcP13__va_list_tag(ptr noundef %.025, i64 noundef %.026, ptr noundef %2, ptr noundef nonnull %5) #7
  call void @llvm.va_end.p0(ptr nonnull %5)
  %39 = icmp slt i32 %38, 0
  br i1 %39, label %40, label %41

40:                                               ; preds = %37
  call void (ptr, i32, ptr, ...) @_ZN16LogMessageBuffer5writeEN8LogLevel4typeEPKcz(ptr noundef nonnull align 8 dereferenceable(72) %0, i32 noundef %1, ptr noundef nonnull @.str, ptr noundef nonnull @.str.4)
  br label %77

41:                                               ; preds = %37
  %narrow = add nuw i32 %38, 1
  %42 = zext i32 %narrow to i64
  %43 = add i64 %.1, %42
  %44 = load i64, ptr %22, align 8
  %45 = load i64, ptr %23, align 8
  %46 = sub i64 %44, %45
  %47 = icmp ugt i64 %43, %46
  br i1 %47, label %48, label %53

48:                                               ; preds = %41
  %49 = add i64 %45, %43
  %50 = shl i64 %44, 1
  %spec.select.i = call i64 @llvm.umax.i64(i64 %50, i64 %49)
  %51 = load ptr, ptr %24, align 8
  %52 = call noundef ptr @_Z14ReallocateHeapPcm8MEMFLAGSN17AllocFailStrategy13AllocFailEnumE(ptr noundef %51, i64 noundef %spec.select.i, i8 noundef zeroext 17, i32 noundef 0) #7
  store ptr %52, ptr %24, align 8
  store i64 %spec.select.i, ptr %22, align 8
  br i1 %29, label %26, label %53, !llvm.loop !8

53:                                               ; preds = %41, %48
  %54 = getelementptr inbounds i8, ptr %0, i64 32
  %55 = load i64, ptr %54, align 8
  %56 = getelementptr inbounds i8, ptr %0, i64 40
  %57 = load i64, ptr %56, align 8
  %58 = icmp eq i64 %55, %57
  %59 = getelementptr inbounds i8, ptr %0, i64 48
  br i1 %58, label %60, label %._crit_edge

._crit_edge:                                      ; preds = %53
  %.pre38 = load ptr, ptr %59, align 8
  br label %65

60:                                               ; preds = %53
  %61 = shl i64 %55, 1
  %62 = load ptr, ptr %59, align 8
  %63 = shl i64 %55, 5
  %64 = call noundef ptr @_Z14ReallocateHeapPcm8MEMFLAGSN17AllocFailStrategy13AllocFailEnumE(ptr noundef %62, i64 noundef %63, i8 noundef zeroext 17, i32 noundef 0) #7
  store ptr %64, ptr %59, align 8
  store i64 %61, ptr %56, align 8
  %.pre39 = load i64, ptr %54, align 8
  br label %65

65:                                               ; preds = %._crit_edge, %60
  %66 = phi i64 [ %55, %._crit_edge ], [ %.pre39, %60 ]
  %67 = phi ptr [ %.pre38, %._crit_edge ], [ %64, %60 ]
  %68 = getelementptr inbounds i8, ptr %0, i64 48
  %69 = getelementptr inbounds %"struct.LogMessageBuffer::LogLine", ptr %67, i64 %66
  store i32 %1, ptr %69, align 8
  %70 = load i64, ptr %23, align 8
  %71 = load ptr, ptr %68, align 8
  %72 = load i64, ptr %54, align 8
  %73 = getelementptr inbounds %"struct.LogMessageBuffer::LogLine", ptr %71, i64 %72, i32 1
  store i64 %70, ptr %73, align 8
  %74 = add i64 %70, %43
  store i64 %74, ptr %23, align 8
  %75 = load i64, ptr %54, align 8
  %76 = add i64 %75, 1
  store i64 %76, ptr %54, align 8
  br label %77

77:                                               ; preds = %65, %40
  ret void
}